target datalayout = "e-m:e-p270:32:32-p271:32:32-p272:64:64-i64:64-i128:128-f80:128-n8:16:32:64-S128"
target triple = "x86_64-pc-linux-gnu"

%struct.TupleDescData = type { i32, i32, i32, i32, ptr, [0 x %struct.CompactAttribute] }
%struct.CompactAttribute = type { i32, i16, i8, i8, i8, i8, i8, i8, i8 }
%struct.FormData_pg_attribute = type { i32, %struct.nameData, i32, i16, i16, i32, i16, i8, i8, i8, i8, i8, i8, i8, i8, i8, i8, i8, i16, i32 }
%struct.nameData = type { [64 x i8] }

@.str.1 = private unnamed_addr constant [10 x i8] c"tupdesc.c\00", align 1
@.str.3 = private unnamed_addr constant [27 x i8] c"invalid attalign value: %c\00", align 1
@__func__.populate_compact_attribute_internal = private unnamed_addr constant [36 x i8] c"populate_compact_attribute_internal\00", align 1

; Function Attrs: inlinehint nounwind uwtable
define internal void @populate_compact_attribute_internal(ptr noundef %0, ptr noundef %1) #2 {
  %3 = alloca ptr, align 8
  %4 = alloca ptr, align 8
  store ptr %0, ptr %3, align 8
  store ptr %1, ptr %4, align 8
  %5 = load ptr, ptr %4, align 8
  call void @llvm.memset.p0.i64(ptr align 4 %5, i8 0, i64 16, i1 false)
  %6 = load ptr, ptr %4, align 8
  %7 = getelementptr inbounds nuw %struct.CompactAttribute, ptr %6, i32 0, i32 0
  store i32 -1, ptr %7, align 4
  %8 = load ptr, ptr %3, align 8
  %9 = getelementptr inbounds nuw %struct.FormData_pg_attribute, ptr %8, i32 0, i32 3
  %10 = load i16, ptr %9, align 4
  %11 = load ptr, ptr %4, align 8
  %12 = getelementptr inbounds nuw %struct.CompactAttribute, ptr %11, i32 0, i32 1
  store i16 %10, ptr %12, align 4
  %13 = load ptr, ptr %3, align 8
  %14 = getelementptr inbounds nuw %struct.FormData_pg_attribute, ptr %13, i32 0, i32 7
  %15 = load i8, ptr %14, align 2, !range !4, !noundef !5
  %16 = trunc i8 %15 to i1
  %17 = load ptr, ptr %4, align 8
  %18 = getelementptr inbounds nuw %struct.CompactAttribute, ptr %17, i32 0, i32 2
  %19 = zext i1 %16 to i8
  store i8 %19, ptr %18, align 2
  %20 = load ptr, ptr %3, align 8
  %21 = getelementptr inbounds nuw %struct.FormData_pg_attribute, ptr %20, i32 0, i32 9
  %22 = load i8, ptr %21, align 4
  %23 = sext i8 %22 to i32
  %24 = icmp ne i32 %23, 112
  %25 = load ptr, ptr %4, align 8
  %26 = getelementptr inbounds nuw %struct.CompactAttribute, ptr %25, i32 0, i32 3
  %27 = zext i1 %24 to i8
  store i8 %27, ptr %26, align 1
  %28 = load ptr, ptr %3, align 8
  %29 = getelementptr inbounds nuw %struct.FormData_pg_attribute, ptr %28, i32 0, i32 13
  %30 = load i8, ptr %29, align 4, !range !4, !noundef !5
  %31 = trunc i8 %30 to i1
  %32 = load ptr, ptr %4, align 8
  %33 = getelementptr inbounds nuw %struct.CompactAttribute, ptr %32, i32 0, i32 4
  %34 = zext i1 %31 to i8
  store i8 %34, ptr %33, align 4
  %35 = load ptr, ptr %3, align 8
  %36 = getelementptr inbounds nuw %struct.FormData_pg_attribute, ptr %35, i32 0, i32 16
  %37 = load i8, ptr %36, align 1, !range !4, !noundef !5
  %38 = trunc i8 %37 to i1
  %39 = load ptr, ptr %4, align 8
  %40 = getelementptr inbounds nuw %struct.CompactAttribute, ptr %39, i32 0, i32 5
  %41 = zext i1 %38 to i8
  store i8 %41, ptr %40, align 1
  %42 = load ptr, ptr %3, align 8
  %43 = getelementptr inbounds nuw %struct.FormData_pg_attribute, ptr %42, i32 0, i32 15
  %44 = load i8, ptr %43, align 2
  %45 = sext i8 %44 to i32
  %46 = icmp ne i32 %45, 0
  %47 = load ptr, ptr %4, align 8
  %48 = getelementptr inbounds nuw %struct.CompactAttribute, ptr %47, i32 0, i32 6
  %49 = zext i1 %46 to i8
  store i8 %49, ptr %48, align 2
  %50 = load ptr, ptr %3, align 8
  %51 = getelementptr inbounds nuw %struct.FormData_pg_attribute, ptr %50, i32 0, i32 11
  %52 = load i8, ptr %51, align 2, !range !4, !noundef !5
  %53 = trunc i8 %52 to i1
  %54 = load ptr, ptr %4, align 8
  %55 = getelementptr inbounds nuw %struct.CompactAttribute, ptr %54, i32 0, i32 7
  %56 = zext i1 %53 to i8
  store i8 %56, ptr %55, align 1
  %57 = load ptr, ptr %3, align 8
  %58 = getelementptr inbounds nuw %struct.FormData_pg_attribute, ptr %57, i32 0, i32 8
  %59 = load i8, ptr %58, align 1
  %60 = sext i8 %59 to i32
  switch i32 %60, label %73 [
    i32 105, label %61
    i32 99, label %64
    i32 100, label %67
    i32 115, label %70
  ]

61:                                               ; preds = %2
  %62 = load ptr, ptr %4, align 8
  %63 = getelementptr inbounds nuw %struct.CompactAttribute, ptr %62, i32 0, i32 8
  store i8 4, ptr %63, align 4
  br label %89

64:                                               ; preds = %2
  %65 = load ptr, ptr %4, align 8
  %66 = getelementptr inbounds nuw %struct.CompactAttribute, ptr %65, i32 0, i32 8
  store i8 1, ptr %66, align 4
  br label %89

67:                                               ; preds = %2
  %68 = load ptr, ptr %4, align 8
  %69 = getelementptr inbounds nuw %struct.CompactAttribute, ptr %68, i32 0, i32 8
  store i8 8, ptr %69, align 4
  br label %89

70:                                               ; preds = %2
  %71 = load ptr, ptr %4, align 8
  %72 = getelementptr inbounds nuw %struct.CompactAttribute, ptr %71, i32 0, i32 8
  store i8 2, ptr %72, align 4
  br label %89

73:                                               ; preds = %2
  %74 = load ptr, ptr %4, align 8
  %75 = getelementptr inbounds nuw %struct.CompactAttribute, ptr %74, i32 0, i32 8
  store i8 0, ptr %75, align 4
  br label %76

76:                                               ; preds = %73
  br i1 true, label %77, label %79

77:                                               ; preds = %76
  %78 = call zeroext i1 @errstart_cold(i32 noundef 21, ptr noundef null) #9
  br i1 %78, label %81, label %87

79:                                               ; preds = %76
  %80 = call zeroext i1 @errstart(i32 noundef 21, ptr noundef null)
  br i1 %80, label %81, label %87

81:                                               ; preds = %79, %77
  %82 = load ptr, ptr %3, align 8
  %83 = getelementptr inbounds nuw %struct.FormData_pg_attribute, ptr %82, i32 0, i32 8
  %84 = load i8, ptr %83, align 1
  %85 = sext i8 %84 to i32
  %86 = call i32 (ptr, ...) @errmsg_internal(ptr noundef @.str.3, i32 noundef %85)
  call void @errfinish(ptr noundef @.str.1, i32 noundef 95, ptr noundef @__func__.populate_compact_attribute_internal)
  br label %87

87:                                               ; preds = %81, %79, %77
  unreachable

88:                                               ; No predecessors!
  br label %89

89:                                               ; preds = %88, %70, %67, %64, %61
  ret void
}

; Function Attrs: inlinehint nounwind uwtable
define internal ptr @TupleDescAttr(ptr noundef %0, i32 noundef %1) #2 {
  %3 = alloca ptr, align 8
  %4 = alloca i32, align 4
  %5 = alloca ptr, align 8
  store ptr %0, ptr %3, align 8
  store i32 %1, ptr %4, align 4
  call void @llvm.lifetime.start.p0(i64 8, ptr %5) #8
  %6 = load ptr, ptr %3, align 8
  %7 = load ptr, ptr %3, align 8
  %8 = getelementptr inbounds nuw %struct.TupleDescData, ptr %7, i32 0, i32 0
  %9 = load i32, ptr %8, align 8
  %10 = sext i32 %9 to i64
  %11 = mul i64 %10, 16
  %12 = add i64 24, %11
  %13 = getelementptr inbounds nuw i8, ptr %6, i64 %12
  store ptr %13, ptr %5, align 8
  %14 = load ptr, ptr %5, align 8
  %15 = load i32, ptr %4, align 4
  %16 = sext i32 %15 to i64
  %17 = getelementptr inbounds %struct.FormData_pg_attribute, ptr %14, i64 %16
  call void @llvm.lifetime.end.p0(i64 8, ptr %5) #8
  ret ptr %17
}

; Function Attrs: nounwind uwtable
define dso_local void @populate_compact_attribute(ptr noundef %0, i32 noundef %1) #0 {
  %3 = alloca ptr, align 8
  %4 = alloca i32, align 4
  %5 = alloca ptr, align 8
  %6 = alloca ptr, align 8
  store ptr %0, ptr %3, align 8
  store i32 %1, ptr %4, align 4
  call void @llvm.lifetime.start.p0(i64 8, ptr %5) #8
  %7 = load ptr, ptr %3, align 8
  %8 = load i32, ptr %4, align 4
  %9 = call ptr @TupleDescAttr(ptr noundef %7, i32 noundef %8)
  store ptr %9, ptr %5, align 8
  call void @llvm.lifetime.start.p0(i64 8, ptr %6) #8
  %10 = load ptr, ptr %3, align 8
  %11 = getelementptr inbounds nuw %struct.TupleDescData, ptr %10, i32 0, i32 5
  %12 = load i32, ptr %4, align 4
  %13 = sext i32 %12 to i64
  %14 = getelementptr inbounds [0 x %struct.CompactAttribute], ptr %11, i64 0, i64 %13
  store ptr %14, ptr %6, align 8
  %15 = load ptr, ptr %5, align 8
  %16 = load ptr, ptr %6, align 8
  call void @populate_compact_attribute_internal(ptr noundef %15, ptr noundef %16)
  call void @llvm.lifetime.end.p0(i64 8, ptr %6) #8
  call void @llvm.lifetime.end.p0(i64 8, ptr %5) #8
  ret void
}