; Function Attrs: nounwind uwtable
define dso_local void @populate_compact_attribute(ptr noundef captures(none) %0, i32 noundef %1) local_unnamed_addr #0 {
  %3 = load i32, ptr %0, align 8
  %4 = sext i32 %3 to i64
  %5 = shl nsw i64 %4, 4
  %6 = getelementptr i8, ptr %0, i64 %5
  %7 = getelementptr i8, ptr %6, i64 24
  %8 = sext i32 %1 to i64
  %9 = getelementptr inbounds %struct.FormData_pg_attribute, ptr %7, i64 %8
  %10 = getelementptr inbounds nuw i8, ptr %0, i64 24
  %11 = getelementptr inbounds [0 x %struct.CompactAttribute], ptr %10, i64 0, i64 %8
  %12 = getelementptr inbounds nuw i8, ptr %11, i64 4
  tail call void @llvm.memset.p0.i64(ptr noundef nonnull align 4 dereferenceable(16) %12, i8 0, i64 12, i1 false)
  store i32 -1, ptr %11, align 4
  %13 = getelementptr inbounds nuw i8, ptr %9, i64 72
  %14 = load i16, ptr %13, align 4
  store i16 %14, ptr %12, align 4
  %15 = getelementptr inbounds nuw i8, ptr %9, i64 82
  %16 = load i8, ptr %15, align 2, !range !4, !noundef !5
  %17 = getelementptr inbounds nuw i8, ptr %11, i64 6
  store i8 %16, ptr %17, align 2
  %18 = getelementptr inbounds nuw i8, ptr %9, i64 84
  %19 = load i8, ptr %18, align 4
  %20 = icmp ne i8 %19, 112
  %21 = getelementptr inbounds nuw i8, ptr %11, i64 7
  %22 = zext i1 %20 to i8
  store i8 %22, ptr %21, align 1
  %23 = getelementptr inbounds nuw i8, ptr %9, i64 88
  %24 = load i8, ptr %23, align 4, !range !4, !noundef !5
  %25 = getelementptr inbounds nuw i8, ptr %11, i64 8
  store i8 %24, ptr %25, align 4
  %26 = getelementptr inbounds nuw i8, ptr %9, i64 91
  %27 = load i8, ptr %26, align 1, !range !4, !noundef !5
  %28 = getelementptr inbounds nuw i8, ptr %11, i64 9
  store i8 %27, ptr %28, align 1
  %29 = getelementptr inbounds nuw i8, ptr %9, i64 90
  %30 = load i8, ptr %29, align 2
  %31 = icmp ne i8 %30, 0
  %32 = getelementptr inbounds nuw i8, ptr %11, i64 10
  %33 = zext i1 %31 to i8
  store i8 %33, ptr %32, align 2
  %34 = getelementptr inbounds nuw i8, ptr %9, i64 86
  %35 = load i8, ptr %34, align 2, !range !4, !noundef !5
  %36 = getelementptr inbounds nuw i8, ptr %11, i64 11
  store i8 %35, ptr %36, align 1
  %37 = getelementptr inbounds nuw i8, ptr %9, i64 83
  %38 = load i8, ptr %37, align 1
  %39 = getelementptr inbounds nuw i8, ptr %11, i64 12
  switch i8 %38, label %43 [
    i8 105, label %populate_compact_attribute_internal.exit
    i8 99, label %40
    i8 100, label %41
    i8 115, label %42
  ]

40:                                               ; preds = %2
  br label %populate_compact_attribute_internal.exit

41:                                               ; preds = %2
  br label %populate_compact_attribute_internal.exit

42:                                               ; preds = %2
  br label %populate_compact_attribute_internal.exit

43:                                               ; preds = %2
  store i8 0, ptr %39, align 4
  %44 = tail call zeroext i1 @errstart_cold(i32 noundef 21, ptr noundef null) #10
  tail call void @llvm.assume(i1 %44)
  %45 = load i8, ptr %37, align 1
  %46 = sext i8 %45 to i32
  %47 = tail call i32 (ptr, ...) @errmsg_internal(ptr noundef nonnull @.str.3, i32 noundef %46) #11
  tail call void @errfinish(ptr noundef nonnull @.str.1, i32 noundef 95, ptr noundef nonnull @__func__.populate_compact_attribute_internal) #11
  unreachable

populate_compact_attribute_internal.exit:         ; preds = %2, %40, %41, %42
  %.sink.i = phi i8 [ 2, %42 ], [ 8, %41 ], [ 1, %40 ], [ 4, %2 ]
  store i8 %.sink.i, ptr %39, align 4
  ret void
}